target datalayout = "e-m:e-p270:32:32-p271:32:32-p272:64:64-i64:64-i128:128-f80:128-n8:16:32:64-S128"
target triple = "x86_64-unknown-linux-gnu"

%"class.icu_75::UnicodeString" = type { %"class.icu_75::Replaceable", %"union.icu_75::UnicodeString::StackBufferOrFields" }
%"class.icu_75::Replaceable" = type { %"class.icu_75::UObject" }
%"class.icu_75::UObject" = type { ptr }
%"union.icu_75::UnicodeString::StackBufferOrFields" = type { %struct.anon.0, [32 x i8] }
%struct.anon.0 = type { i16, i32, i32, ptr }
%"class.icu_75::UVector" = type { %"class.icu_75::UObject", i32, i32, ptr, ptr, ptr }
%"class.icu_75::UXMLElement" = type { %"class.icu_75::UObject", ptr, ptr, %"class.icu_75::UnicodeString", %"class.icu_75::UVector", %"class.icu_75::UVector", %"class.icu_75::UVector", ptr }

@_ZTIN6icu_757UObjectE = external constant ptr
@_ZTIN6icu_7511UXMLElementE = constant { ptr, ptr, ptr } { ptr getelementptr inbounds (ptr, ptr @_ZTVN10__cxxabiv120__si_class_type_infoE, i64 2), ptr @_ZTSN6icu_7511UXMLElementE, ptr @_ZTIN6icu_757UObjectE }, align 8

; Function Attrs: mustprogress nounwind uwtable
define linkonce_odr noundef i32 @_ZNK6icu_757UVector4sizeEv(ptr noundef nonnull align 8 dereferenceable(40) %this) #0 comdat align 2 {
entry:
  %this.addr = alloca ptr, align 8
  store ptr %this, ptr %this.addr, align 8
  %this1 = load ptr, ptr %this.addr, align 8
  %count = getelementptr inbounds %"class.icu_75::UVector", ptr %this1, i32 0, i32 1
  %0 = load i32, ptr %count, align 8
  ret i32 %0
}

; Function Attrs: mustprogress uwtable
define noundef ptr @_ZNK6icu_7511UXMLElement8getChildEiR12UXMLNodeType(ptr noundef nonnull align 8 dereferenceable(216) %this, i32 noundef %i, ptr noundef nonnull align 4 dereferenceable(4) %type) #1 align 2 {
entry:
  %retval = alloca ptr, align 8
  %this.addr = alloca ptr, align 8
  %i.addr = alloca i32, align 4
  %type.addr = alloca ptr, align 8
  %node = alloca ptr, align 8
  store ptr %this, ptr %this.addr, align 8
  store i32 %i, ptr %i.addr, align 4
  store ptr %type, ptr %type.addr, align 8
  %this1 = load ptr, ptr %this.addr, align 8
  %0 = load i32, ptr %i.addr, align 4
  %cmp = icmp sle i32 0, %0
  br i1 %cmp, label %land.lhs.true, label %if.else7

land.lhs.true:                                    ; preds = %entry
  %1 = load i32, ptr %i.addr, align 4
  %fChildren = getelementptr inbounds %"class.icu_75::UXMLElement", ptr %this1, i32 0, i32 6
  %call = call noundef i32 @_ZNK6icu_757UVector4sizeEv(ptr noundef nonnull align 8 dereferenceable(40) %fChildren)
  %cmp2 = icmp slt i32 %1, %call
  br i1 %cmp2, label %if.then, label %if.else7

if.then:                                          ; preds = %land.lhs.true
  %fChildren3 = getelementptr inbounds %"class.icu_75::UXMLElement", ptr %this1, i32 0, i32 6
  %2 = load i32, ptr %i.addr, align 4
  %call4 = call noundef ptr @_ZNK6icu_757UVector9elementAtEi(ptr noundef nonnull align 8 dereferenceable(40) %fChildren3, i32 noundef %2)
  store ptr %call4, ptr %node, align 8
  %3 = load ptr, ptr %node, align 8
  %4 = icmp eq ptr %3, null
  br i1 %4, label %dynamic_cast.null, label %dynamic_cast.notnull

dynamic_cast.notnull:                             ; preds = %if.then
  %5 = call ptr @__dynamic_cast(ptr %3, ptr @_ZTIN6icu_757UObjectE, ptr @_ZTIN6icu_7511UXMLElementE, i64 0) #6
  br label %dynamic_cast.end

dynamic_cast.null:                                ; preds = %if.then
  br label %dynamic_cast.end

dynamic_cast.end:                                 ; preds = %dynamic_cast.null, %dynamic_cast.notnull
  %6 = phi ptr [ %5, %dynamic_cast.notnull ], [ null, %dynamic_cast.null ]
  %cmp5 = icmp ne ptr %6, null
  br i1 %cmp5, label %if.then6, label %if.else

if.then6:                                         ; preds = %dynamic_cast.end
  %7 = load ptr, ptr %type.addr, align 8
  store i32 1, ptr %7, align 4
  br label %if.end

if.else:                                          ; preds = %dynamic_cast.end
  %8 = load ptr, ptr %type.addr, align 8
  store i32 0, ptr %8, align 4
  br label %if.end

if.end:                                           ; preds = %if.else, %if.then6
  %9 = load ptr, ptr %node, align 8
  store ptr %9, ptr %retval, align 8
  br label %return

if.else7:                                         ; preds = %land.lhs.true, %entry
  store ptr null, ptr %retval, align 8
  br label %return

return:                                           ; preds = %if.else7, %if.end
  %10 = load ptr, ptr %retval, align 8
  ret ptr %10
}