; Function Attrs: mustprogress uwtable
define noundef ptr @_ZNK6icu_7511UXMLElement8getChildEiR12UXMLNodeType(ptr noundef nonnull align 8 dereferenceable(216) %this, i32 noundef %i, ptr nocapture noundef nonnull writeonly align 4 dereferenceable(4) %type) local_unnamed_addr #1 align 2 {
entry:
  %cmp = icmp sgt i32 %i, -1
  %count.i = getelementptr inbounds i8, ptr %this, i64 176
  %0 = load i32, ptr %count.i, align 8
  %cmp2 = icmp sgt i32 %0, %i
  %or.cond = select i1 %cmp, i1 %cmp2, i1 false
  br i1 %or.cond, label %if.then, label %return

if.then:                                          ; preds = %entry
  %fChildren = getelementptr inbounds i8, ptr %this, i64 168
  %call4 = tail call noundef ptr @_ZNK6icu_757UVector9elementAtEi(ptr noundef nonnull align 8 dereferenceable(40) %fChildren, i32 noundef %i)
  %1 = icmp eq ptr %call4, null
  br i1 %1, label %dynamic_cast.end.thread, label %dynamic_cast.end

dynamic_cast.end:                                 ; preds = %if.then
  %2 = tail call ptr @__dynamic_cast(ptr nonnull %call4, ptr nonnull @_ZTIN6icu_757UObjectE, ptr nonnull @_ZTIN6icu_7511UXMLElementE, i64 0) #11
  %.fr = freeze ptr %2
  %3 = icmp eq ptr %.fr, null
  br i1 %3, label %dynamic_cast.end.thread, label %4

dynamic_cast.end.thread:                          ; preds = %if.then, %dynamic_cast.end
  br label %4

4:                                                ; preds = %dynamic_cast.end, %dynamic_cast.end.thread
  %5 = phi i32 [ 0, %dynamic_cast.end.thread ], [ 1, %dynamic_cast.end ]
  store i32 %5, ptr %type, align 4
  br label %return

return:                                           ; preds = %entry, %4
  %retval.0 = phi ptr [ %call4, %4 ], [ null, %entry ]
  ret ptr %retval.0
}